target datalayout = "e-m:e-p270:32:32-p271:32:32-p272:64:64-i64:64-i128:128-f80:128-n8:16:32:64-S128"
target triple = "x86_64-pc-linux-gnu"

; Function Attrs: alwaysinline nounwind uwtable
define internal i64 @av_sat_add64_c(i64 noundef %0, i64 noundef %1) #10 {
  %3 = alloca i64, align 8
  %4 = alloca i64, align 8
  %5 = alloca i64, align 8
  store i64 %0, ptr %3, align 8, !tbaa !96
  store i64 %1, ptr %4, align 8, !tbaa !96
  call void @llvm.lifetime.start.p0(i64 8, ptr %5) #13
  %6 = load i64, ptr %3, align 8, !tbaa !96
  %7 = load i64, ptr %4, align 8, !tbaa !96
  %8 = call { i64, i1 } @llvm.sadd.with.overflow.i64(i64 %6, i64 %7)
  %9 = extractvalue { i64, i1 } %8, 1
  %10 = extractvalue { i64, i1 } %8, 0
  store i64 %10, ptr %5, align 8
  br i1 %9, label %13, label %11

11:                                               ; preds = %2
  %12 = load i64, ptr %5, align 8, !tbaa !96
  br label %17

13:                                               ; preds = %2
  %14 = load i64, ptr %5, align 8, !tbaa !96
  %15 = icmp slt i64 %14, 0
  %16 = select i1 %15, i64 9223372036854775807, i64 -9223372036854775808
  br label %17

17:                                               ; preds = %13, %11
  %18 = phi i64 [ %12, %11 ], [ %16, %13 ]
  call void @llvm.lifetime.end.p0(i64 8, ptr %5) #13
  ret i64 %18
}

; Function Attrs: alwaysinline nounwind willreturn memory(none) uwtable
define internal double @av_clipd_c(double noundef %0, double noundef %1, double noundef %2) #9 {
  %4 = alloca double, align 8
  %5 = alloca double, align 8
  %6 = alloca double, align 8
  store double %0, ptr %4, align 8, !tbaa !137
  store double %1, ptr %5, align 8, !tbaa !137
  store double %2, ptr %6, align 8, !tbaa !137
  %7 = load double, ptr %4, align 8, !tbaa !137
  %8 = load double, ptr %5, align 8, !tbaa !137
  %9 = fcmp nsz ogt double %7, %8
  br i1 %9, label %10, label %12

10:                                               ; preds = %3
  %11 = load double, ptr %4, align 8, !tbaa !137
  br label %14

12:                                               ; preds = %3
  %13 = load double, ptr %5, align 8, !tbaa !137
  br label %14

14:                                               ; preds = %12, %10
  %15 = phi nsz double [ %11, %10 ], [ %13, %12 ]
  %16 = load double, ptr %6, align 8, !tbaa !137
  %17 = fcmp nsz ogt double %15, %16
  br i1 %17, label %18, label %20

18:                                               ; preds = %14
  %19 = load double, ptr %6, align 8, !tbaa !137
  br label %30

20:                                               ; preds = %14
  %21 = load double, ptr %4, align 8, !tbaa !137
  %22 = load double, ptr %5, align 8, !tbaa !137
  %23 = fcmp nsz ogt double %21, %22
  br i1 %23, label %24, label %26

24:                                               ; preds = %20
  %25 = load double, ptr %4, align 8, !tbaa !137
  br label %28

26:                                               ; preds = %20
  %27 = load double, ptr %5, align 8, !tbaa !137
  br label %28

28:                                               ; preds = %26, %24
  %29 = phi nsz double [ %25, %24 ], [ %27, %26 ]
  br label %30

30:                                               ; preds = %28, %18
  %31 = phi nsz double [ %19, %18 ], [ %29, %28 ]
  ret double %31
}

; Function Attrs: nounwind uwtable
define internal i32 @str_to_time(ptr noundef %0, ptr noundef %1) #1 {
  %3 = alloca i32, align 4
  %4 = alloca ptr, align 8
  %5 = alloca ptr, align 8
  %6 = alloca ptr, align 8
  %7 = alloca ptr, align 8
  %8 = alloca i32, align 4
  %9 = alloca i32, align 4
  %10 = alloca double, align 8
  %11 = alloca i64, align 8
  %12 = alloca i32, align 4
  store ptr %0, ptr %4, align 8, !tbaa !104
  store ptr %1, ptr %5, align 8, !tbaa !163
  call void @llvm.lifetime.start.p0(i64 8, ptr %6) #13
  %13 = load ptr, ptr %4, align 8, !tbaa !104
  store ptr %13, ptr %6, align 8, !tbaa !104
  call void @llvm.lifetime.start.p0(i64 8, ptr %7) #13
  call void @llvm.lifetime.start.p0(i64 4, ptr %8) #13
  call void @llvm.lifetime.start.p0(i64 4, ptr %9) #13
  call void @llvm.lifetime.start.p0(i64 8, ptr %10) #13
  store double 0.000000e+00, ptr %10, align 8, !tbaa !137
  call void @llvm.lifetime.start.p0(i64 8, ptr %11) #13
  store i64 0, ptr %11, align 8, !tbaa !96
  %14 = load ptr, ptr %6, align 8, !tbaa !104
  %15 = load i8, ptr %14, align 1, !tbaa !70
  %16 = sext i8 %15 to i32
  %17 = icmp slt i32 %16, 48
  br i1 %17, label %23, label %18

18:                                               ; preds = %2
  %19 = load ptr, ptr %6, align 8, !tbaa !104
  %20 = load i8, ptr %19, align 1, !tbaa !70
  %21 = sext i8 %20 to i32
  %22 = icmp sgt i32 %21, 57
  br i1 %22, label %23, label %24

23:                                               ; preds = %18, %2
  store i32 0, ptr %3, align 4
  store i32 1, ptr %12, align 4
  br label %98

24:                                               ; preds = %18
  %25 = load ptr, ptr %6, align 8, !tbaa !104
  %26 = call i64 @strtol(ptr noundef %25, ptr noundef %7, i32 noundef 10) #13
  %27 = trunc i64 %26 to i32
  store i32 %27, ptr %8, align 4, !tbaa !14
  %28 = load ptr, ptr %7, align 8, !tbaa !104
  %29 = load ptr, ptr %6, align 8, !tbaa !104
  %30 = icmp eq ptr %28, %29
  br i1 %30, label %48, label %31

31:                                               ; preds = %24
  %32 = load ptr, ptr %7, align 8, !tbaa !104
  %33 = load i8, ptr %32, align 1, !tbaa !70
  %34 = sext i8 %33 to i32
  %35 = icmp ne i32 %34, 58
  br i1 %35, label %48, label %36

36:                                               ; preds = %31
  %37 = load ptr, ptr %7, align 8, !tbaa !104
  %38 = getelementptr inbounds i8, ptr %37, i64 1
  %39 = load i8, ptr %38, align 1, !tbaa !70
  %40 = sext i8 %39 to i32
  %41 = icmp slt i32 %40, 48
  br i1 %41, label %48, label %42

42:                                               ; preds = %36
  %43 = load ptr, ptr %7, align 8, !tbaa !104
  %44 = getelementptr inbounds i8, ptr %43, i64 1
  %45 = load i8, ptr %44, align 1, !tbaa !70
  %46 = sext i8 %45 to i32
  %47 = icmp sgt i32 %46, 57
  br i1 %47, label %48, label %49

48:                                               ; preds = %42, %36, %31, %24
  store i32 0, ptr %3, align 4
  store i32 1, ptr %12, align 4
  br label %98

49:                                               ; preds = %42
  %50 = load ptr, ptr %7, align 8, !tbaa !104
  %51 = getelementptr inbounds i8, ptr %50, i64 1
  store ptr %51, ptr %6, align 8, !tbaa !104
  %52 = load ptr, ptr %6, align 8, !tbaa !104
  %53 = call i64 @strtol(ptr noundef %52, ptr noundef %7, i32 noundef 10) #13
  %54 = trunc i64 %53 to i32
  store i32 %54, ptr %9, align 4, !tbaa !14
  %55 = load ptr, ptr %7, align 8, !tbaa !104
  %56 = load ptr, ptr %6, align 8, !tbaa !104
  %57 = icmp eq ptr %55, %56
  br i1 %57, label %58, label %59

58:                                               ; preds = %49
  store i32 0, ptr %3, align 4
  store i32 1, ptr %12, align 4
  br label %98

59:                                               ; preds = %49
  %60 = load ptr, ptr %7, align 8, !tbaa !104
  store ptr %60, ptr %6, align 8, !tbaa !104
  %61 = load ptr, ptr %7, align 8, !tbaa !104
  %62 = load i8, ptr %61, align 1, !tbaa !70
  %63 = sext i8 %62 to i32
  %64 = icmp eq i32 %63, 58
  br i1 %64, label %65, label %80

65:                                               ; preds = %59
  %66 = load ptr, ptr %6, align 8, !tbaa !104
  %67 = getelementptr inbounds i8, ptr %66, i64 1
  %68 = call nsz double @strtod(ptr noundef %67, ptr noundef %7) #13
  store double %68, ptr %10, align 8, !tbaa !137
  %69 = load ptr, ptr %7, align 8, !tbaa !104
  %70 = load ptr, ptr %6, align 8, !tbaa !104
  %71 = getelementptr inbounds i8, ptr %70, i64 1
  %72 = icmp ugt ptr %69, %71
  br i1 %72, label %73, label %75

73:                                               ; preds = %65
  %74 = load ptr, ptr %7, align 8, !tbaa !104
  store ptr %74, ptr %6, align 8, !tbaa !104
  br label %75

75:                                               ; preds = %73, %65
  %76 = load double, ptr %10, align 8, !tbaa !137
  %77 = fmul nsz double %76, 1.000000e+06
  %78 = call nsz double @av_clipd_c(double noundef %77, double noundef 0xC3D0000000000000, double noundef 0x43D0000000000000) #14
  %79 = fptosi double %78 to i64
  store i64 %79, ptr %11, align 8, !tbaa !96
  br label %80

80:                                               ; preds = %75, %59
  %81 = load i32, ptr %8, align 4, !tbaa !14
  %82 = sext i32 %81 to i64
  %83 = mul nsw i64 %82, 3600
  %84 = load i32, ptr %9, align 4, !tbaa !14
  %85 = sext i32 %84 to i64
  %86 = mul nsw i64 %85, 60
  %87 = add nsw i64 %83, %86
  %88 = mul nsw i64 %87, 1000000
  %89 = load i64, ptr %11, align 8, !tbaa !96
  %90 = call i64 @av_sat_add64_c(i64 noundef %88, i64 noundef %89)
  %91 = load ptr, ptr %5, align 8, !tbaa !163
  store i64 %90, ptr %91, align 8, !tbaa !96
  %92 = load ptr, ptr %6, align 8, !tbaa !104
  %93 = load ptr, ptr %4, align 8, !tbaa !104
  %94 = ptrtoint ptr %92 to i64
  %95 = ptrtoint ptr %93 to i64
  %96 = sub i64 %94, %95
  %97 = trunc i64 %96 to i32
  store i32 %97, ptr %3, align 4
  store i32 1, ptr %12, align 4
  br label %98

98:                                               ; preds = %80, %58, %48, %23
  call void @llvm.lifetime.end.p0(i64 8, ptr %11) #13
  call void @llvm.lifetime.end.p0(i64 8, ptr %10) #13
  call void @llvm.lifetime.end.p0(i64 4, ptr %9) #13
  call void @llvm.lifetime.end.p0(i64 4, ptr %8) #13
  call void @llvm.lifetime.end.p0(i64 8, ptr %7) #13
  call void @llvm.lifetime.end.p0(i64 8, ptr %6) #13
  %99 = load i32, ptr %3, align 4
  ret i32 %99
}