; Function Attrs: mustprogress nofree norecurse nounwind willreturn uwtable
define internal fastcc i32 @str_to_time(ptr noundef %0, ptr noundef nonnull writeonly captures(none) %1) unnamed_addr #10 {
  %3 = alloca ptr, align 8
  call void @llvm.lifetime.start.p0(i64 8, ptr nonnull %3) #16
  %4 = load i8, ptr %0, align 1, !tbaa !79
  %5 = add i8 %4, -58
  %or.cond = icmp ult i8 %5, -10
  br i1 %or.cond, label %50, label %6

6:                                                ; preds = %2
  %7 = call i64 @strtol(ptr noundef nonnull %0, ptr noundef nonnull %3, i32 noundef 10) #16
  %8 = load ptr, ptr %3, align 8, !tbaa !166
  %9 = icmp eq ptr %8, %0
  br i1 %9, label %50, label %10

10:                                               ; preds = %6
  %11 = load i8, ptr %8, align 1, !tbaa !79
  %.not = icmp eq i8 %11, 58
  br i1 %.not, label %12, label %50

12:                                               ; preds = %10
  %13 = getelementptr inbounds nuw i8, ptr %8, i64 1
  %14 = load i8, ptr %13, align 1, !tbaa !79
  %15 = add i8 %14, -58
  %or.cond25 = icmp ult i8 %15, -10
  br i1 %or.cond25, label %50, label %16

16:                                               ; preds = %12
  %17 = call i64 @strtol(ptr noundef nonnull %13, ptr noundef nonnull %3, i32 noundef 10) #16
  %18 = load ptr, ptr %3, align 8, !tbaa !166
  %19 = icmp eq ptr %18, %13
  br i1 %19, label %50, label %20

20:                                               ; preds = %16
  %21 = load i8, ptr %18, align 1, !tbaa !79
  %22 = icmp eq i8 %21, 58
  br i1 %22, label %23, label %33

23:                                               ; preds = %20
  %24 = getelementptr inbounds nuw i8, ptr %18, i64 1
  %25 = call nsz double @strtod(ptr noundef nonnull %24, ptr noundef nonnull %3) #16
  %26 = load ptr, ptr %3, align 8, !tbaa !166
  %27 = icmp ugt ptr %26, %24
  %spec.select = select i1 %27, ptr %26, ptr %18
  %28 = fmul nsz double %25, 1.000000e+06
  %29 = fcmp nsz ogt double %28, 0xC3D0000000000000
  %30 = select nsz i1 %29, double %28, double 0xC3D0000000000000
  %31 = fcmp nsz ogt double %30, 0x43D0000000000000
  %..i = select nsz i1 %31, double 0x43D0000000000000, double %30
  %32 = fptosi double %..i to i64
  br label %33

33:                                               ; preds = %23, %20
  %.017 = phi ptr [ %spec.select, %23 ], [ %18, %20 ]
  %.0 = phi i64 [ %32, %23 ], [ 0, %20 ]
  %sext = shl i64 %7, 32
  %34 = ashr exact i64 %sext, 32
  %35 = mul nsw i64 %34, 3600
  %sext24 = shl i64 %17, 32
  %36 = ashr exact i64 %sext24, 32
  %37 = mul nsw i64 %36, 60
  %38 = add nsw i64 %37, %35
  %39 = mul nsw i64 %38, 1000000
  %40 = tail call { i64, i1 } @llvm.sadd.with.overflow.i64(i64 %39, i64 %.0)
  %41 = extractvalue { i64, i1 } %40, 1
  %42 = extractvalue { i64, i1 } %40, 0
  %43 = icmp slt i64 %42, 0
  %44 = select i1 %43, i64 9223372036854775807, i64 -9223372036854775808
  %45 = select i1 %41, i64 %44, i64 %42
  store i64 %45, ptr %1, align 8, !tbaa !61
  %46 = ptrtoint ptr %.017 to i64
  %47 = ptrtoint ptr %0 to i64
  %48 = sub i64 %46, %47
  %49 = trunc i64 %48 to i32
  br label %50

50:                                               ; preds = %16, %6, %10, %12, %2, %33
  %.016 = phi i32 [ %49, %33 ], [ 0, %2 ], [ 0, %12 ], [ 0, %10 ], [ 0, %6 ], [ 0, %16 ]
  call void @llvm.lifetime.end.p0(i64 8, ptr nonnull %3) #16
  ret i32 %.016
}